target datalayout = "e-m:e-p270:32:32-p271:32:32-p272:64:64-i64:64-i128:128-f80:128-n8:16:32:64-S128"
target triple = "x86_64-pc-linux-gnu"

%struct.ARKodeMemRec = type { ptr, double, ptr, i32, i32, double, double, ptr, i32, double, ptr, i32, i32, ptr, ptr, i32, ptr, ptr, i32, ptr, ptr, ptr, ptr, ptr, ptr, ptr, ptr, ptr, ptr, ptr, ptr, ptr, ptr, ptr, i32, ptr, ptr, i32, ptr, i32, ptr, ptr, ptr, ptr, ptr, ptr, ptr, ptr, ptr, ptr, ptr, ptr, ptr, ptr, ptr, ptr, ptr, ptr, ptr, ptr, ptr, ptr, ptr, ptr, ptr, ptr, i32, ptr, ptr, ptr, ptr, ptr, ptr, ptr, i32, ptr, ptr, ptr, i32, ptr, ptr, ptr, ptr, ptr, ptr, ptr, i32, i32, i32, i32, double, double, double, double, double, double, double, double, double, double, i32, ptr, i64, i32, i32, i32, i32, i64, i64, i32, i64, i64, i64, i64, i64, i64, i64, double, double, double, double, double, i32, double, double, i32, i32, i32, i32, i32, i32, i32, i32, ptr, i32, ptr, ptr, ptr, ptr, i32, i32, i32 }
%struct.ARKLsMemRec = type { i32, i32, i32, ptr, ptr, i32, i32, double, double, ptr, ptr, ptr, ptr, ptr, ptr, ptr, i64, double, i64, i64, i64, i64, i64, i64, i64, i64, i64, double, ptr, ptr, ptr, ptr, i32, ptr, ptr, ptr, ptr, i32, ptr, ptr, i32 }

@.str = private unnamed_addr constant [118 x i8] c"generated/home/dtcxzyw/WorkSpace/Projects/compilers/llvm-opt-benchmark/bench/sundials/sundials/src/arkode/arkode_ls.c\00", align 1
@.str.1 = private unnamed_addr constant [27 x i8] c"arkode_mem = NULL illegal.\00", align 1
@.str.2 = private unnamed_addr constant [58 x i8] c"time-stepping module does not require an algebraic solver\00", align 1
@__func__.ARKodeSetJacFn = private unnamed_addr constant [15 x i8] c"ARKodeSetJacFn\00", align 1
@.str.17 = private unnamed_addr constant [55 x i8] c"Jacobian routine cannot be supplied for NULL SUNMatrix\00", align 1
@.str.64 = private unnamed_addr constant [30 x i8] c"Linear solver memory is NULL.\00", align 1

; Function Attrs: nounwind uwtable
define i32 @arkLs_AccessLMem(ptr noundef %0, ptr noundef %1, ptr noundef %2) #0 {
  %4 = alloca i32, align 4
  %5 = alloca ptr, align 8
  %6 = alloca ptr, align 8
  %7 = alloca ptr, align 8
  %8 = alloca ptr, align 8
  %9 = alloca i32, align 4
  store ptr %0, ptr %5, align 8, !tbaa !11
  store ptr %1, ptr %6, align 8, !tbaa !155
  store ptr %2, ptr %7, align 8, !tbaa !157
  call void @llvm.lifetime.start.p0(i64 8, ptr %8) #7
  %10 = load ptr, ptr %5, align 8, !tbaa !11
  %11 = getelementptr inbounds nuw %struct.ARKodeMemRec, ptr %10, i32 0, i32 42
  %12 = load ptr, ptr %11, align 8, !tbaa !41
  %13 = load ptr, ptr %5, align 8, !tbaa !11
  %14 = call ptr %12(ptr noundef %13)
  store ptr %14, ptr %8, align 8, !tbaa !3
  %15 = load ptr, ptr %8, align 8, !tbaa !3
  %16 = icmp eq ptr %15, null
  br i1 %16, label %17, label %20

17:                                               ; preds = %3
  %18 = load ptr, ptr %5, align 8, !tbaa !11
  %19 = load ptr, ptr %6, align 8, !tbaa !155
  call void (ptr, i32, i32, ptr, ptr, ptr, ...) @arkProcessError(ptr noundef %18, i32 noundef -2, i32 noundef 4072, ptr noundef %19, ptr noundef @.str, ptr noundef @.str.64)
  store i32 -2, ptr %4, align 4
  store i32 1, ptr %9, align 4
  br label %23

20:                                               ; preds = %3
  %21 = load ptr, ptr %8, align 8, !tbaa !3
  %22 = load ptr, ptr %7, align 8, !tbaa !157
  store ptr %21, ptr %22, align 8, !tbaa !44
  store i32 0, ptr %4, align 4
  store i32 1, ptr %9, align 4
  br label %23

23:                                               ; preds = %20, %17
  call void @llvm.lifetime.end.p0(i64 8, ptr %8) #7
  %24 = load i32, ptr %4, align 4
  ret i32 %24
}

; Function Attrs: nounwind uwtable
define i32 @ARKodeSetJacFn(ptr noundef %0, ptr noundef %1) #0 {
  %3 = alloca i32, align 4
  %4 = alloca ptr, align 8
  %5 = alloca ptr, align 8
  %6 = alloca ptr, align 8
  %7 = alloca ptr, align 8
  %8 = alloca i32, align 4
  %9 = alloca i32, align 4
  store ptr %0, ptr %4, align 8, !tbaa !3
  store ptr %1, ptr %5, align 8, !tbaa !3
  call void @llvm.lifetime.start.p0(i64 8, ptr %6) #7
  call void @llvm.lifetime.start.p0(i64 8, ptr %7) #7
  call void @llvm.lifetime.start.p0(i64 4, ptr %8) #7
  %10 = load ptr, ptr %4, align 8, !tbaa !3
  %11 = icmp eq ptr %10, null
  br i1 %11, label %12, label %13

12:                                               ; preds = %2
  call void (ptr, i32, i32, ptr, ptr, ptr, ...) @arkProcessError(ptr noundef null, i32 noundef -21, i32 noundef 551, ptr noundef @__func__.ARKodeSetJacFn, ptr noundef @.str, ptr noundef @.str.1)
  store i32 -21, ptr %3, align 4
  store i32 1, ptr %9, align 4
  br label %68

13:                                               ; preds = %2
  %14 = load ptr, ptr %4, align 8, !tbaa !3
  store ptr %14, ptr %6, align 8, !tbaa !11
  %15 = load ptr, ptr %6, align 8, !tbaa !11
  %16 = getelementptr inbounds nuw %struct.ARKodeMemRec, ptr %15, i32 0, i32 39
  %17 = load i32, ptr %16, align 8, !tbaa !13
  %18 = icmp ne i32 %17, 0
  br i1 %18, label %21, label %19

19:                                               ; preds = %13
  %20 = load ptr, ptr %6, align 8, !tbaa !11
  call void (ptr, i32, i32, ptr, ptr, ptr, ...) @arkProcessError(ptr noundef %20, i32 noundef -48, i32 noundef 560, ptr noundef @__func__.ARKodeSetJacFn, ptr noundef @.str, ptr noundef @.str.2)
  store i32 -48, ptr %3, align 4
  store i32 1, ptr %9, align 4
  br label %68

21:                                               ; preds = %13
  %22 = load ptr, ptr %6, align 8, !tbaa !11
  %23 = call i32 @arkLs_AccessLMem(ptr noundef %22, ptr noundef @__func__.ARKodeSetJacFn, ptr noundef %7)
  store i32 %23, ptr %8, align 4, !tbaa !30
  %24 = load i32, ptr %8, align 4, !tbaa !30
  %25 = icmp ne i32 %24, 0
  br i1 %25, label %26, label %28

26:                                               ; preds = %21
  %27 = load i32, ptr %8, align 4, !tbaa !30
  store i32 %27, ptr %3, align 4
  store i32 1, ptr %9, align 4
  br label %68

28:                                               ; preds = %21
  %29 = load ptr, ptr %5, align 8, !tbaa !3
  %30 = icmp ne ptr %29, null
  br i1 %30, label %31, label %38

31:                                               ; preds = %28
  %32 = load ptr, ptr %7, align 8, !tbaa !44
  %33 = getelementptr inbounds nuw %struct.ARKLsMemRec, ptr %32, i32 0, i32 10
  %34 = load ptr, ptr %33, align 8, !tbaa !71
  %35 = icmp eq ptr %34, null
  br i1 %35, label %36, label %38

36:                                               ; preds = %31
  %37 = load ptr, ptr %6, align 8, !tbaa !11
  call void (ptr, i32, i32, ptr, ptr, ptr, ...) @arkProcessError(ptr noundef %37, i32 noundef -3, i32 noundef 572, ptr noundef @__func__.ARKodeSetJacFn, ptr noundef @.str, ptr noundef @.str.17)
  store i32 -3, ptr %3, align 4
  store i32 1, ptr %9, align 4
  br label %68

38:                                               ; preds = %31, %28
  %39 = load ptr, ptr %5, align 8, !tbaa !3
  %40 = icmp ne ptr %39, null
  br i1 %40, label %41, label %52

41:                                               ; preds = %38
  %42 = load ptr, ptr %7, align 8, !tbaa !44
  %43 = getelementptr inbounds nuw %struct.ARKLsMemRec, ptr %42, i32 0, i32 2
  store i32 0, ptr %43, align 8, !tbaa !50
  %44 = load ptr, ptr %5, align 8, !tbaa !3
  %45 = load ptr, ptr %7, align 8, !tbaa !44
  %46 = getelementptr inbounds nuw %struct.ARKLsMemRec, ptr %45, i32 0, i32 3
  store ptr %44, ptr %46, align 8, !tbaa !51
  %47 = load ptr, ptr %6, align 8, !tbaa !11
  %48 = getelementptr inbounds nuw %struct.ARKodeMemRec, ptr %47, i32 0, i32 2
  %49 = load ptr, ptr %48, align 8, !tbaa !64
  %50 = load ptr, ptr %7, align 8, !tbaa !44
  %51 = getelementptr inbounds nuw %struct.ARKLsMemRec, ptr %50, i32 0, i32 4
  store ptr %49, ptr %51, align 8, !tbaa !52
  br label %60

52:                                               ; preds = %38
  %53 = load ptr, ptr %7, align 8, !tbaa !44
  %54 = getelementptr inbounds nuw %struct.ARKLsMemRec, ptr %53, i32 0, i32 2
  store i32 1, ptr %54, align 8, !tbaa !50
  %55 = load ptr, ptr %7, align 8, !tbaa !44
  %56 = getelementptr inbounds nuw %struct.ARKLsMemRec, ptr %55, i32 0, i32 3
  store ptr @arkLsDQJac, ptr %56, align 8, !tbaa !51
  %57 = load ptr, ptr %6, align 8, !tbaa !11
  %58 = load ptr, ptr %7, align 8, !tbaa !44
  %59 = getelementptr inbounds nuw %struct.ARKLsMemRec, ptr %58, i32 0, i32 4
  store ptr %57, ptr %59, align 8, !tbaa !52
  br label %60

60:                                               ; preds = %52, %41
  %61 = load ptr, ptr %7, align 8, !tbaa !44
  %62 = getelementptr inbounds nuw %struct.ARKLsMemRec, ptr %61, i32 0, i32 37
  store i32 0, ptr %62, align 8, !tbaa !58
  %63 = load ptr, ptr %7, align 8, !tbaa !44
  %64 = getelementptr inbounds nuw %struct.ARKLsMemRec, ptr %63, i32 0, i32 38
  store ptr @arkLsLinSys, ptr %64, align 8, !tbaa !59
  %65 = load ptr, ptr %6, align 8, !tbaa !11
  %66 = load ptr, ptr %7, align 8, !tbaa !44
  %67 = getelementptr inbounds nuw %struct.ARKLsMemRec, ptr %66, i32 0, i32 39
  store ptr %65, ptr %67, align 8, !tbaa !60
  store i32 0, ptr %3, align 4
  store i32 1, ptr %9, align 4
  br label %68

68:                                               ; preds = %60, %36, %26, %19, %12
  call void @llvm.lifetime.end.p0(i64 4, ptr %8) #7
  call void @llvm.lifetime.end.p0(i64 8, ptr %7) #7
  call void @llvm.lifetime.end.p0(i64 8, ptr %6) #7
  %69 = load i32, ptr %3, align 4
  ret i32 %69
}